target datalayout = "e-m:e-p270:32:32-p271:32:32-p272:64:64-i64:64-i128:128-f80:128-n8:16:32:64-S128"
target triple = "x86_64-pc-linux-gnu"

%struct.b3OpenCLDeviceInfo = type { [1024 x i8], [1024 x i8], [1024 x i8], [1024 x i8], i64, i32, i64, [3 x i64], i64, i64, i64, i64, i64, i64, i32, i64, i64, i64, i32, i32, i32, i32, i32, i64, i64, i32, i32, i32, i32, i32, i32, i32 }

@__clewGetDeviceInfo = external global ptr, align 8

; Function Attrs: mustprogress uwtable
define dso_local void @_ZN13b3OpenCLUtils13getDeviceInfoEP13_cl_device_idP18b3OpenCLDeviceInfo(ptr noundef %0, ptr noundef %1) #0 align 2 {
  %3 = alloca ptr, align 8
  %4 = alloca ptr, align 8
  store ptr %0, ptr %3, align 8, !tbaa !33
  store ptr %1, ptr %4, align 8, !tbaa !9
  %5 = load ptr, ptr @__clewGetDeviceInfo, align 8, !tbaa !9
  %6 = load ptr, ptr %3, align 8, !tbaa !33
  %7 = load ptr, ptr %4, align 8, !tbaa !9
  %8 = getelementptr inbounds nuw %struct.b3OpenCLDeviceInfo, ptr %7, i32 0, i32 0
  %9 = call i32 %5(ptr noundef %6, i32 noundef 4139, i64 noundef 1024, ptr noundef %8, ptr noundef null)
  %10 = load ptr, ptr @__clewGetDeviceInfo, align 8, !tbaa !9
  %11 = load ptr, ptr %3, align 8, !tbaa !33
  %12 = load ptr, ptr %4, align 8, !tbaa !9
  %13 = getelementptr inbounds nuw %struct.b3OpenCLDeviceInfo, ptr %12, i32 0, i32 1
  %14 = call i32 %10(ptr noundef %11, i32 noundef 4140, i64 noundef 1024, ptr noundef %13, ptr noundef null)
  %15 = load ptr, ptr @__clewGetDeviceInfo, align 8, !tbaa !9
  %16 = load ptr, ptr %3, align 8, !tbaa !33
  %17 = load ptr, ptr %4, align 8, !tbaa !9
  %18 = getelementptr inbounds nuw %struct.b3OpenCLDeviceInfo, ptr %17, i32 0, i32 2
  %19 = call i32 %15(ptr noundef %16, i32 noundef 4141, i64 noundef 1024, ptr noundef %18, ptr noundef null)
  %20 = load ptr, ptr @__clewGetDeviceInfo, align 8, !tbaa !9
  %21 = load ptr, ptr %3, align 8, !tbaa !33
  %22 = load ptr, ptr %4, align 8, !tbaa !9
  %23 = getelementptr inbounds nuw %struct.b3OpenCLDeviceInfo, ptr %22, i32 0, i32 4
  %24 = call i32 %20(ptr noundef %21, i32 noundef 4096, i64 noundef 8, ptr noundef %23, ptr noundef null)
  %25 = load ptr, ptr @__clewGetDeviceInfo, align 8, !tbaa !9
  %26 = load ptr, ptr %3, align 8, !tbaa !33
  %27 = load ptr, ptr %4, align 8, !tbaa !9
  %28 = getelementptr inbounds nuw %struct.b3OpenCLDeviceInfo, ptr %27, i32 0, i32 5
  %29 = call i32 %25(ptr noundef %26, i32 noundef 4098, i64 noundef 4, ptr noundef %28, ptr noundef null)
  %30 = load ptr, ptr @__clewGetDeviceInfo, align 8, !tbaa !9
  %31 = load ptr, ptr %3, align 8, !tbaa !33
  %32 = load ptr, ptr %4, align 8, !tbaa !9
  %33 = getelementptr inbounds nuw %struct.b3OpenCLDeviceInfo, ptr %32, i32 0, i32 6
  %34 = call i32 %30(ptr noundef %31, i32 noundef 4099, i64 noundef 8, ptr noundef %33, ptr noundef null)
  %35 = load ptr, ptr @__clewGetDeviceInfo, align 8, !tbaa !9
  %36 = load ptr, ptr %3, align 8, !tbaa !33
  %37 = load ptr, ptr %4, align 8, !tbaa !9
  %38 = getelementptr inbounds nuw %struct.b3OpenCLDeviceInfo, ptr %37, i32 0, i32 7
  %39 = call i32 %35(ptr noundef %36, i32 noundef 4101, i64 noundef 24, ptr noundef %38, ptr noundef null)
  %40 = load ptr, ptr @__clewGetDeviceInfo, align 8, !tbaa !9
  %41 = load ptr, ptr %3, align 8, !tbaa !33
  %42 = load ptr, ptr %4, align 8, !tbaa !9
  %43 = getelementptr inbounds nuw %struct.b3OpenCLDeviceInfo, ptr %42, i32 0, i32 13
  %44 = call i32 %40(ptr noundef %41, i32 noundef 4100, i64 noundef 8, ptr noundef %43, ptr noundef null)
  %45 = load ptr, ptr @__clewGetDeviceInfo, align 8, !tbaa !9
  %46 = load ptr, ptr %3, align 8, !tbaa !33
  %47 = load ptr, ptr %4, align 8, !tbaa !9
  %48 = getelementptr inbounds nuw %struct.b3OpenCLDeviceInfo, ptr %47, i32 0, i32 14
  %49 = call i32 %45(ptr noundef %46, i32 noundef 4108, i64 noundef 4, ptr noundef %48, ptr noundef null)
  %50 = load ptr, ptr @__clewGetDeviceInfo, align 8, !tbaa !9
  %51 = load ptr, ptr %3, align 8, !tbaa !33
  %52 = load ptr, ptr %4, align 8, !tbaa !9
  %53 = getelementptr inbounds nuw %struct.b3OpenCLDeviceInfo, ptr %52, i32 0, i32 22
  %54 = call i32 %50(ptr noundef %51, i32 noundef 4109, i64 noundef 4, ptr noundef %53, ptr noundef null)
  %55 = load ptr, ptr @__clewGetDeviceInfo, align 8, !tbaa !9
  %56 = load ptr, ptr %3, align 8, !tbaa !33
  %57 = load ptr, ptr %4, align 8, !tbaa !9
  %58 = getelementptr inbounds nuw %struct.b3OpenCLDeviceInfo, ptr %57, i32 0, i32 23
  %59 = call i32 %55(ptr noundef %56, i32 noundef 4112, i64 noundef 8, ptr noundef %58, ptr noundef null)
  %60 = load ptr, ptr @__clewGetDeviceInfo, align 8, !tbaa !9
  %61 = load ptr, ptr %3, align 8, !tbaa !33
  %62 = load ptr, ptr %4, align 8, !tbaa !9
  %63 = getelementptr inbounds nuw %struct.b3OpenCLDeviceInfo, ptr %62, i32 0, i32 17
  %64 = call i32 %60(ptr noundef %61, i32 noundef 4127, i64 noundef 8, ptr noundef %63, ptr noundef null)
  %65 = load ptr, ptr @__clewGetDeviceInfo, align 8, !tbaa !9
  %66 = load ptr, ptr %3, align 8, !tbaa !33
  %67 = load ptr, ptr %4, align 8, !tbaa !9
  %68 = getelementptr inbounds nuw %struct.b3OpenCLDeviceInfo, ptr %67, i32 0, i32 18
  %69 = call i32 %65(ptr noundef %66, i32 noundef 4132, i64 noundef 4, ptr noundef %68, ptr noundef null)
  %70 = load ptr, ptr @__clewGetDeviceInfo, align 8, !tbaa !9
  %71 = load ptr, ptr %3, align 8, !tbaa !33
  %72 = load ptr, ptr %4, align 8, !tbaa !9
  %73 = getelementptr inbounds nuw %struct.b3OpenCLDeviceInfo, ptr %72, i32 0, i32 19
  %74 = call i32 %70(ptr noundef %71, i32 noundef 4130, i64 noundef 4, ptr noundef %73, ptr noundef null)
  %75 = load ptr, ptr @__clewGetDeviceInfo, align 8, !tbaa !9
  %76 = load ptr, ptr %3, align 8, !tbaa !33
  %77 = load ptr, ptr %4, align 8, !tbaa !9
  %78 = getelementptr inbounds nuw %struct.b3OpenCLDeviceInfo, ptr %77, i32 0, i32 16
  %79 = call i32 %75(ptr noundef %76, i32 noundef 4131, i64 noundef 8, ptr noundef %78, ptr noundef null)
  %80 = load ptr, ptr @__clewGetDeviceInfo, align 8, !tbaa !9
  %81 = load ptr, ptr %3, align 8, !tbaa !33
  %82 = load ptr, ptr %4, align 8, !tbaa !9
  %83 = getelementptr inbounds nuw %struct.b3OpenCLDeviceInfo, ptr %82, i32 0, i32 15
  %84 = call i32 %80(ptr noundef %81, i32 noundef 4128, i64 noundef 8, ptr noundef %83, ptr noundef null)
  %85 = load ptr, ptr @__clewGetDeviceInfo, align 8, !tbaa !9
  %86 = load ptr, ptr %3, align 8, !tbaa !33
  %87 = load ptr, ptr %4, align 8, !tbaa !9
  %88 = getelementptr inbounds nuw %struct.b3OpenCLDeviceInfo, ptr %87, i32 0, i32 24
  %89 = call i32 %85(ptr noundef %86, i32 noundef 4138, i64 noundef 8, ptr noundef %88, ptr noundef null)
  %90 = load ptr, ptr @__clewGetDeviceInfo, align 8, !tbaa !9
  %91 = load ptr, ptr %3, align 8, !tbaa !33
  %92 = load ptr, ptr %4, align 8, !tbaa !9
  %93 = getelementptr inbounds nuw %struct.b3OpenCLDeviceInfo, ptr %92, i32 0, i32 25
  %94 = call i32 %90(ptr noundef %91, i32 noundef 4118, i64 noundef 4, ptr noundef %93, ptr noundef null)
  %95 = load ptr, ptr @__clewGetDeviceInfo, align 8, !tbaa !9
  %96 = load ptr, ptr %3, align 8, !tbaa !33
  %97 = load ptr, ptr %4, align 8, !tbaa !9
  %98 = getelementptr inbounds nuw %struct.b3OpenCLDeviceInfo, ptr %97, i32 0, i32 20
  %99 = call i32 %95(ptr noundef %96, i32 noundef 4110, i64 noundef 4, ptr noundef %98, ptr noundef null)
  %100 = load ptr, ptr @__clewGetDeviceInfo, align 8, !tbaa !9
  %101 = load ptr, ptr %3, align 8, !tbaa !33
  %102 = load ptr, ptr %4, align 8, !tbaa !9
  %103 = getelementptr inbounds nuw %struct.b3OpenCLDeviceInfo, ptr %102, i32 0, i32 21
  %104 = call i32 %100(ptr noundef %101, i32 noundef 4111, i64 noundef 4, ptr noundef %103, ptr noundef null)
  %105 = load ptr, ptr @__clewGetDeviceInfo, align 8, !tbaa !9
  %106 = load ptr, ptr %3, align 8, !tbaa !33
  %107 = load ptr, ptr %4, align 8, !tbaa !9
  %108 = getelementptr inbounds nuw %struct.b3OpenCLDeviceInfo, ptr %107, i32 0, i32 8
  %109 = call i32 %105(ptr noundef %106, i32 noundef 4113, i64 noundef 8, ptr noundef %108, ptr noundef null)
  %110 = load ptr, ptr @__clewGetDeviceInfo, align 8, !tbaa !9
  %111 = load ptr, ptr %3, align 8, !tbaa !33
  %112 = load ptr, ptr %4, align 8, !tbaa !9
  %113 = getelementptr inbounds nuw %struct.b3OpenCLDeviceInfo, ptr %112, i32 0, i32 9
  %114 = call i32 %110(ptr noundef %111, i32 noundef 4114, i64 noundef 8, ptr noundef %113, ptr noundef null)
  %115 = load ptr, ptr @__clewGetDeviceInfo, align 8, !tbaa !9
  %116 = load ptr, ptr %3, align 8, !tbaa !33
  %117 = load ptr, ptr %4, align 8, !tbaa !9
  %118 = getelementptr inbounds nuw %struct.b3OpenCLDeviceInfo, ptr %117, i32 0, i32 10
  %119 = call i32 %115(ptr noundef %116, i32 noundef 4115, i64 noundef 8, ptr noundef %118, ptr noundef null)
  %120 = load ptr, ptr @__clewGetDeviceInfo, align 8, !tbaa !9
  %121 = load ptr, ptr %3, align 8, !tbaa !33
  %122 = load ptr, ptr %4, align 8, !tbaa !9
  %123 = getelementptr inbounds nuw %struct.b3OpenCLDeviceInfo, ptr %122, i32 0, i32 11
  %124 = call i32 %120(ptr noundef %121, i32 noundef 4116, i64 noundef 8, ptr noundef %123, ptr noundef null)
  %125 = load ptr, ptr @__clewGetDeviceInfo, align 8, !tbaa !9
  %126 = load ptr, ptr %3, align 8, !tbaa !33
  %127 = load ptr, ptr %4, align 8, !tbaa !9
  %128 = getelementptr inbounds nuw %struct.b3OpenCLDeviceInfo, ptr %127, i32 0, i32 12
  %129 = call i32 %125(ptr noundef %126, i32 noundef 4117, i64 noundef 8, ptr noundef %128, ptr noundef null)
  %130 = load ptr, ptr @__clewGetDeviceInfo, align 8, !tbaa !9
  %131 = load ptr, ptr %3, align 8, !tbaa !33
  %132 = load ptr, ptr %4, align 8, !tbaa !9
  %133 = getelementptr inbounds nuw %struct.b3OpenCLDeviceInfo, ptr %132, i32 0, i32 3
  %134 = call i32 %130(ptr noundef %131, i32 noundef 4144, i64 noundef 1024, ptr noundef %133, ptr noundef null)
  %135 = load ptr, ptr @__clewGetDeviceInfo, align 8, !tbaa !9
  %136 = load ptr, ptr %3, align 8, !tbaa !33
  %137 = load ptr, ptr %4, align 8, !tbaa !9
  %138 = getelementptr inbounds nuw %struct.b3OpenCLDeviceInfo, ptr %137, i32 0, i32 26
  %139 = call i32 %135(ptr noundef %136, i32 noundef 4102, i64 noundef 4, ptr noundef %138, ptr noundef null)
  %140 = load ptr, ptr @__clewGetDeviceInfo, align 8, !tbaa !9
  %141 = load ptr, ptr %3, align 8, !tbaa !33
  %142 = load ptr, ptr %4, align 8, !tbaa !9
  %143 = getelementptr inbounds nuw %struct.b3OpenCLDeviceInfo, ptr %142, i32 0, i32 27
  %144 = call i32 %140(ptr noundef %141, i32 noundef 4103, i64 noundef 4, ptr noundef %143, ptr noundef null)
  %145 = load ptr, ptr @__clewGetDeviceInfo, align 8, !tbaa !9
  %146 = load ptr, ptr %3, align 8, !tbaa !33
  %147 = load ptr, ptr %4, align 8, !tbaa !9
  %148 = getelementptr inbounds nuw %struct.b3OpenCLDeviceInfo, ptr %147, i32 0, i32 28
  %149 = call i32 %145(ptr noundef %146, i32 noundef 4104, i64 noundef 4, ptr noundef %148, ptr noundef null)
  %150 = load ptr, ptr @__clewGetDeviceInfo, align 8, !tbaa !9
  %151 = load ptr, ptr %3, align 8, !tbaa !33
  %152 = load ptr, ptr %4, align 8, !tbaa !9
  %153 = getelementptr inbounds nuw %struct.b3OpenCLDeviceInfo, ptr %152, i32 0, i32 29
  %154 = call i32 %150(ptr noundef %151, i32 noundef 4105, i64 noundef 4, ptr noundef %153, ptr noundef null)
  %155 = load ptr, ptr @__clewGetDeviceInfo, align 8, !tbaa !9
  %156 = load ptr, ptr %3, align 8, !tbaa !33
  %157 = load ptr, ptr %4, align 8, !tbaa !9
  %158 = getelementptr inbounds nuw %struct.b3OpenCLDeviceInfo, ptr %157, i32 0, i32 30
  %159 = call i32 %155(ptr noundef %156, i32 noundef 4106, i64 noundef 4, ptr noundef %158, ptr noundef null)
  %160 = load ptr, ptr @__clewGetDeviceInfo, align 8, !tbaa !9
  %161 = load ptr, ptr %3, align 8, !tbaa !33
  %162 = load ptr, ptr %4, align 8, !tbaa !9
  %163 = getelementptr inbounds nuw %struct.b3OpenCLDeviceInfo, ptr %162, i32 0, i32 31
  %164 = call i32 %160(ptr noundef %161, i32 noundef 4107, i64 noundef 4, ptr noundef %163, ptr noundef null)
  ret void
}