; Function Attrs: mustprogress uwtable
define dso_local void @_ZN13b3OpenCLUtils13getDeviceInfoEP13_cl_device_idP18b3OpenCLDeviceInfo(ptr noundef %0, ptr noundef %1) local_unnamed_addr #0 align 2 {
  %3 = load ptr, ptr @__clewGetDeviceInfo, align 8, !tbaa !8
  %4 = tail call i32 %3(ptr noundef %0, i32 noundef 4139, i64 noundef 1024, ptr noundef %1, ptr noundef null)
  %5 = load ptr, ptr @__clewGetDeviceInfo, align 8, !tbaa !8
  %6 = getelementptr inbounds nuw i8, ptr %1, i64 1024
  %7 = tail call i32 %5(ptr noundef %0, i32 noundef 4140, i64 noundef 1024, ptr noundef nonnull %6, ptr noundef null)
  %8 = load ptr, ptr @__clewGetDeviceInfo, align 8, !tbaa !8
  %9 = getelementptr inbounds nuw i8, ptr %1, i64 2048
  %10 = tail call i32 %8(ptr noundef %0, i32 noundef 4141, i64 noundef 1024, ptr noundef nonnull %9, ptr noundef null)
  %11 = load ptr, ptr @__clewGetDeviceInfo, align 8, !tbaa !8
  %12 = getelementptr inbounds nuw i8, ptr %1, i64 4096
  %13 = tail call i32 %11(ptr noundef %0, i32 noundef 4096, i64 noundef 8, ptr noundef nonnull %12, ptr noundef null)
  %14 = load ptr, ptr @__clewGetDeviceInfo, align 8, !tbaa !8
  %15 = getelementptr inbounds nuw i8, ptr %1, i64 4104
  %16 = tail call i32 %14(ptr noundef %0, i32 noundef 4098, i64 noundef 4, ptr noundef nonnull %15, ptr noundef null)
  %17 = load ptr, ptr @__clewGetDeviceInfo, align 8, !tbaa !8
  %18 = getelementptr inbounds nuw i8, ptr %1, i64 4112
  %19 = tail call i32 %17(ptr noundef %0, i32 noundef 4099, i64 noundef 8, ptr noundef nonnull %18, ptr noundef null)
  %20 = load ptr, ptr @__clewGetDeviceInfo, align 8, !tbaa !8
  %21 = getelementptr inbounds nuw i8, ptr %1, i64 4120
  %22 = tail call i32 %20(ptr noundef %0, i32 noundef 4101, i64 noundef 24, ptr noundef nonnull %21, ptr noundef null)
  %23 = load ptr, ptr @__clewGetDeviceInfo, align 8, !tbaa !8
  %24 = getelementptr inbounds nuw i8, ptr %1, i64 4184
  %25 = tail call i32 %23(ptr noundef %0, i32 noundef 4100, i64 noundef 8, ptr noundef nonnull %24, ptr noundef null)
  %26 = load ptr, ptr @__clewGetDeviceInfo, align 8, !tbaa !8
  %27 = getelementptr inbounds nuw i8, ptr %1, i64 4192
  %28 = tail call i32 %26(ptr noundef %0, i32 noundef 4108, i64 noundef 4, ptr noundef nonnull %27, ptr noundef null)
  %29 = load ptr, ptr @__clewGetDeviceInfo, align 8, !tbaa !8
  %30 = getelementptr inbounds nuw i8, ptr %1, i64 4240
  %31 = tail call i32 %29(ptr noundef %0, i32 noundef 4109, i64 noundef 4, ptr noundef nonnull %30, ptr noundef null)
  %32 = load ptr, ptr @__clewGetDeviceInfo, align 8, !tbaa !8
  %33 = getelementptr inbounds nuw i8, ptr %1, i64 4248
  %34 = tail call i32 %32(ptr noundef %0, i32 noundef 4112, i64 noundef 8, ptr noundef nonnull %33, ptr noundef null)
  %35 = load ptr, ptr @__clewGetDeviceInfo, align 8, !tbaa !8
  %36 = getelementptr inbounds nuw i8, ptr %1, i64 4216
  %37 = tail call i32 %35(ptr noundef %0, i32 noundef 4127, i64 noundef 8, ptr noundef nonnull %36, ptr noundef null)
  %38 = load ptr, ptr @__clewGetDeviceInfo, align 8, !tbaa !8
  %39 = getelementptr inbounds nuw i8, ptr %1, i64 4224
  %40 = tail call i32 %38(ptr noundef %0, i32 noundef 4132, i64 noundef 4, ptr noundef nonnull %39, ptr noundef null)
  %41 = load ptr, ptr @__clewGetDeviceInfo, align 8, !tbaa !8
  %42 = getelementptr inbounds nuw i8, ptr %1, i64 4228
  %43 = tail call i32 %41(ptr noundef %0, i32 noundef 4130, i64 noundef 4, ptr noundef nonnull %42, ptr noundef null)
  %44 = load ptr, ptr @__clewGetDeviceInfo, align 8, !tbaa !8
  %45 = getelementptr inbounds nuw i8, ptr %1, i64 4208
  %46 = tail call i32 %44(ptr noundef %0, i32 noundef 4131, i64 noundef 8, ptr noundef nonnull %45, ptr noundef null)
  %47 = load ptr, ptr @__clewGetDeviceInfo, align 8, !tbaa !8
  %48 = getelementptr inbounds nuw i8, ptr %1, i64 4200
  %49 = tail call i32 %47(ptr noundef %0, i32 noundef 4128, i64 noundef 8, ptr noundef nonnull %48, ptr noundef null)
  %50 = load ptr, ptr @__clewGetDeviceInfo, align 8, !tbaa !8
  %51 = getelementptr inbounds nuw i8, ptr %1, i64 4256
  %52 = tail call i32 %50(ptr noundef %0, i32 noundef 4138, i64 noundef 8, ptr noundef nonnull %51, ptr noundef null)
  %53 = load ptr, ptr @__clewGetDeviceInfo, align 8, !tbaa !8
  %54 = getelementptr inbounds nuw i8, ptr %1, i64 4264
  %55 = tail call i32 %53(ptr noundef %0, i32 noundef 4118, i64 noundef 4, ptr noundef nonnull %54, ptr noundef null)
  %56 = load ptr, ptr @__clewGetDeviceInfo, align 8, !tbaa !8
  %57 = getelementptr inbounds nuw i8, ptr %1, i64 4232
  %58 = tail call i32 %56(ptr noundef %0, i32 noundef 4110, i64 noundef 4, ptr noundef nonnull %57, ptr noundef null)
  %59 = load ptr, ptr @__clewGetDeviceInfo, align 8, !tbaa !8
  %60 = getelementptr inbounds nuw i8, ptr %1, i64 4236
  %61 = tail call i32 %59(ptr noundef %0, i32 noundef 4111, i64 noundef 4, ptr noundef nonnull %60, ptr noundef null)
  %62 = load ptr, ptr @__clewGetDeviceInfo, align 8, !tbaa !8
  %63 = getelementptr inbounds nuw i8, ptr %1, i64 4144
  %64 = tail call i32 %62(ptr noundef %0, i32 noundef 4113, i64 noundef 8, ptr noundef nonnull %63, ptr noundef null)
  %65 = load ptr, ptr @__clewGetDeviceInfo, align 8, !tbaa !8
  %66 = getelementptr inbounds nuw i8, ptr %1, i64 4152
  %67 = tail call i32 %65(ptr noundef %0, i32 noundef 4114, i64 noundef 8, ptr noundef nonnull %66, ptr noundef null)
  %68 = load ptr, ptr @__clewGetDeviceInfo, align 8, !tbaa !8
  %69 = getelementptr inbounds nuw i8, ptr %1, i64 4160
  %70 = tail call i32 %68(ptr noundef %0, i32 noundef 4115, i64 noundef 8, ptr noundef nonnull %69, ptr noundef null)
  %71 = load ptr, ptr @__clewGetDeviceInfo, align 8, !tbaa !8
  %72 = getelementptr inbounds nuw i8, ptr %1, i64 4168
  %73 = tail call i32 %71(ptr noundef %0, i32 noundef 4116, i64 noundef 8, ptr noundef nonnull %72, ptr noundef null)
  %74 = load ptr, ptr @__clewGetDeviceInfo, align 8, !tbaa !8
  %75 = getelementptr inbounds nuw i8, ptr %1, i64 4176
  %76 = tail call i32 %74(ptr noundef %0, i32 noundef 4117, i64 noundef 8, ptr noundef nonnull %75, ptr noundef null)
  %77 = load ptr, ptr @__clewGetDeviceInfo, align 8, !tbaa !8
  %78 = getelementptr inbounds nuw i8, ptr %1, i64 3072
  %79 = tail call i32 %77(ptr noundef %0, i32 noundef 4144, i64 noundef 1024, ptr noundef nonnull %78, ptr noundef null)
  %80 = load ptr, ptr @__clewGetDeviceInfo, align 8, !tbaa !8
  %81 = getelementptr inbounds nuw i8, ptr %1, i64 4268
  %82 = tail call i32 %80(ptr noundef %0, i32 noundef 4102, i64 noundef 4, ptr noundef nonnull %81, ptr noundef null)
  %83 = load ptr, ptr @__clewGetDeviceInfo, align 8, !tbaa !8
  %84 = getelementptr inbounds nuw i8, ptr %1, i64 4272
  %85 = tail call i32 %83(ptr noundef %0, i32 noundef 4103, i64 noundef 4, ptr noundef nonnull %84, ptr noundef null)
  %86 = load ptr, ptr @__clewGetDeviceInfo, align 8, !tbaa !8
  %87 = getelementptr inbounds nuw i8, ptr %1, i64 4276
  %88 = tail call i32 %86(ptr noundef %0, i32 noundef 4104, i64 noundef 4, ptr noundef nonnull %87, ptr noundef null)
  %89 = load ptr, ptr @__clewGetDeviceInfo, align 8, !tbaa !8
  %90 = getelementptr inbounds nuw i8, ptr %1, i64 4280
  %91 = tail call i32 %89(ptr noundef %0, i32 noundef 4105, i64 noundef 4, ptr noundef nonnull %90, ptr noundef null)
  %92 = load ptr, ptr @__clewGetDeviceInfo, align 8, !tbaa !8
  %93 = getelementptr inbounds nuw i8, ptr %1, i64 4284
  %94 = tail call i32 %92(ptr noundef %0, i32 noundef 4106, i64 noundef 4, ptr noundef nonnull %93, ptr noundef null)
  %95 = load ptr, ptr @__clewGetDeviceInfo, align 8, !tbaa !8
  %96 = getelementptr inbounds nuw i8, ptr %1, i64 4288
  %97 = tail call i32 %95(ptr noundef %0, i32 noundef 4107, i64 noundef 4, ptr noundef nonnull %96, ptr noundef null)
  ret void
}